; ModuleID = '62/1394.c'
source_filename = "62/1394.c"
target datalayout = "e-m:e-p270:32:32-p271:32:32-p272:64:64-i64:64-f80:128-n8:16:32:64-S128"
target triple = "x86_64-pc-linux-gnu"

@.str = private unnamed_addr constant [3 x i8] c"%c\00", align 1
@.str.1 = private unnamed_addr constant [2 x i8] c" \00", align 1

; Function Attrs: noinline nounwind uwtable
define dso_local void @main() #0 {
  %1 = alloca i32, align 4
  %2 = alloca i8*, align 8
  %3 = call noalias i8* @calloc(i64 1000, i64 1) #3
  store i8* %3, i8** %2, align 8
  %4 = load i8*, i8** %2, align 8
  %5 = call i32 (i8*, ...) bitcast (i32 (...)* @gets to i32 (i8*, ...)*)(i8* %4)
  store i32 0, i32* %1, align 4
  br label %6

6:                                                ; preds = %43, %0
  %7 = load i8*, i8** %2, align 8
  %8 = load i32, i32* %1, align 4
  %9 = sext i32 %8 to i64
  %10 = getelementptr inbounds i8, i8* %7, i64 %9
  %11 = load i8, i8* %10, align 1
  %12 = sext i8 %11 to i32
  %13 = icmp ne i32 %12, 0
  br i1 %13, label %14, label %46

14:                                               ; preds = %6
  %15 = load i8*, i8** %2, align 8
  %16 = load i32, i32* %1, align 4
  %17 = sext i32 %16 to i64
  %18 = getelementptr inbounds i8, i8* %15, i64 %17
  %19 = load i8, i8* %18, align 1
  %20 = sext i8 %19 to i32
  %21 = icmp ne i32 %20, 32
  br i1 %21, label %22, label %30

22:                                               ; preds = %14
  %23 = load i8*, i8** %2, align 8
  %24 = load i32, i32* %1, align 4
  %25 = sext i32 %24 to i64
  %26 = getelementptr inbounds i8, i8* %23, i64 %25
  %27 = load i8, i8* %26, align 1
  %28 = sext i8 %27 to i32
  %29 = call i32 (i8*, ...) @printf(i8* getelementptr inbounds ([3 x i8], [3 x i8]* @.str, i64 0, i64 0), i32 %28)
  br label %42

30:                                               ; preds = %14
  %31 = load i8*, i8** %2, align 8
  %32 = load i32, i32* %1, align 4
  %33 = sext i32 %32 to i64
  %34 = getelementptr inbounds i8, i8* %31, i64 %33
  %35 = getelementptr inbounds i8, i8* %34, i64 1
  %36 = load i8, i8* %35, align 1
  %37 = sext i8 %36 to i32
  %38 = icmp ne i32 %37, 32
  br i1 %38, label %39, label %41

39:                                               ; preds = %30
  %40 = call i32 (i8*, ...) @printf(i8* getelementptr inbounds ([2 x i8], [2 x i8]* @.str.1, i64 0, i64 0))
  br label %41

41:                                               ; preds = %39, %30
  br label %42

42:                                               ; preds = %41, %22
  br label %43

43:                                               ; preds = %42
  %44 = load i32, i32* %1, align 4
  %45 = add nsw i32 %44, 1
  store i32 %45, i32* %1, align 4
  br label %6

46:                                               ; preds = %6
  ret void
}

; Function Attrs: nounwind
declare dso_local noalias i8* @calloc(i64, i64) #1

declare dso_local i32 @gets(...) #2

declare dso_local i32 @printf(i8*, ...) #2


!llvm.module.flags = !{!0}
!llvm.ident = !{!1}

!0 = !{i32 1, !"wchar_size", i32 4}
!1 = !{!"clang version 10.0.0-4ubuntu1 "}
